target datalayout = "e-m:e-p270:32:32-p271:32:32-p272:64:64-i64:64-i128:128-f80:128-n8:16:32:64-S128"
target triple = "x86_64-pc-linux-gnu"

%"class.cv::utils::trace::details::Region" = type <{ ptr, i32, [4 x i8] }>
%"class.cv::ParallelLoopBody" = type { ptr }
%"class.cv::Range" = type { i32, i32 }
%"class.cv::Mat" = type { i32, i32, i32, i32, ptr, ptr, ptr, ptr, ptr, ptr, %"struct.cv::MatSize", %"struct.cv::MatStep" }
%"struct.cv::MatSize" = type { ptr }
%"struct.cv::MatStep" = type { ptr, [2 x i64] }
%"class.cv::Mat_" = type { %"class.cv::Mat" }
%"struct.cv::kinfu::PyrDownBilateralInvoker" = type <{ %"class.cv::ParallelLoopBody", ptr, ptr, float, [4 x i8] }>

@_ZTVN2cv16ParallelLoopBodyE = external unnamed_addr constant { [5 x ptr] }, align 8

; Function Attrs: mustprogress nounwind uwtable
define linkonce_odr hidden void @_ZN2cv16ParallelLoopBodyC2Ev(ptr noundef nonnull align 8 dereferenceable(8) %0) unnamed_addr #7 comdat align 2 {
  %2 = alloca ptr, align 8
  store ptr %0, ptr %2, align 8
  %3 = load ptr, ptr %2, align 8
  store ptr getelementptr inbounds inrange(-16, 24) ({ [5 x ptr] }, ptr @_ZTVN2cv16ParallelLoopBodyE, i32 0, i32 0, i32 2), ptr %3, align 8
  ret void
}

; Function Attrs: mustprogress nounwind uwtable
define linkonce_odr hidden void @_ZN2cv4Mat_IfED2Ev(ptr noundef nonnull align 8 dereferenceable(96) %0) unnamed_addr #7 comdat align 2 {
  %2 = alloca ptr, align 8
  store ptr %0, ptr %2, align 8
  %3 = load ptr, ptr %2, align 8
  call void @_ZN2cv3MatD2Ev(ptr noundef nonnull align 8 dereferenceable(96) %3) #3
  ret void
}

; Function Attrs: mustprogress nounwind uwtable
define linkonce_odr hidden void @_ZN2cv5kinfu23PyrDownBilateralInvokerD2Ev(ptr noundef nonnull align 8 dereferenceable(28) %0) unnamed_addr #7 comdat align 2 {
  %2 = alloca ptr, align 8
  store ptr %0, ptr %2, align 8
  %3 = load ptr, ptr %2, align 8
  call void @_ZN2cv16ParallelLoopBodyD2Ev(ptr noundef nonnull align 8 dereferenceable(8) %3) #3
  ret void
}

; Function Attrs: mustprogress nounwind uwtable
define linkonce_odr hidden void @_ZN2cv5RangeC2Eii(ptr noundef nonnull align 4 dereferenceable(8) %0, i32 noundef %1, i32 noundef %2) unnamed_addr #7 comdat align 2 {
  %4 = alloca ptr, align 8
  %5 = alloca i32, align 4
  %6 = alloca i32, align 4
  store ptr %0, ptr %4, align 8
  store i32 %1, ptr %5, align 4
  store i32 %2, ptr %6, align 4
  %7 = load ptr, ptr %4, align 8
  %8 = getelementptr inbounds %"class.cv::Range", ptr %7, i32 0, i32 0
  %9 = load i32, ptr %5, align 4
  store i32 %9, ptr %8, align 4
  %10 = getelementptr inbounds %"class.cv::Range", ptr %7, i32 0, i32 1
  %11 = load i32, ptr %6, align 4
  store i32 %11, ptr %10, align 4
  ret void
}

; Function Attrs: mustprogress nounwind uwtable
define linkonce_odr hidden void @_ZN2cv5kinfu23PyrDownBilateralInvokerC2ERKNS_4Mat_IfEERS3_f(ptr noundef nonnull align 8 dereferenceable(28) %0, ptr noundef nonnull align 8 dereferenceable(96) %1, ptr noundef nonnull align 8 dereferenceable(96) %2, float noundef %3) unnamed_addr #7 comdat align 2 {
  %5 = alloca ptr, align 8
  %6 = alloca ptr, align 8
  %7 = alloca ptr, align 8
  %8 = alloca float, align 4
  store ptr %0, ptr %5, align 8
  store ptr %1, ptr %6, align 8
  store ptr %2, ptr %7, align 8
  store float %3, ptr %8, align 4
  %9 = load ptr, ptr %5, align 8
  %10 = getelementptr inbounds i8, ptr %9, i64 0
  call void @llvm.memset.p0.i64(ptr align 8 %10, i8 0, i64 8, i1 false)
  call void @_ZN2cv16ParallelLoopBodyC2Ev(ptr noundef nonnull align 8 dereferenceable(8) %9) #3
  store ptr getelementptr inbounds inrange(-16, 24) ({ [5 x ptr] }, ptr @_ZTVN2cv5kinfu23PyrDownBilateralInvokerE, i32 0, i32 0, i32 2), ptr %9, align 8
  %11 = getelementptr inbounds %"struct.cv::kinfu::PyrDownBilateralInvoker", ptr %9, i32 0, i32 1
  %12 = load ptr, ptr %6, align 8
  store ptr %12, ptr %11, align 8
  %13 = getelementptr inbounds %"struct.cv::kinfu::PyrDownBilateralInvoker", ptr %9, i32 0, i32 2
  %14 = load ptr, ptr %7, align 8
  store ptr %14, ptr %13, align 8
  %15 = getelementptr inbounds %"struct.cv::kinfu::PyrDownBilateralInvoker", ptr %9, i32 0, i32 3
  %16 = load float, ptr %8, align 4
  store float %16, ptr %15, align 8
  ret void
}

; Function Attrs: mustprogress uwtable
define linkonce_odr hidden void @_ZN2cv4Mat_IfEC2Eii(ptr noundef nonnull align 8 dereferenceable(96) %0, i32 noundef %1, i32 noundef %2) unnamed_addr #4 comdat align 2 {
  %4 = alloca ptr, align 8
  %5 = alloca i32, align 4
  %6 = alloca i32, align 4
  store ptr %0, ptr %4, align 8
  store i32 %1, ptr %5, align 4
  store i32 %2, ptr %6, align 4
  %7 = load ptr, ptr %4, align 8
  %8 = load i32, ptr %5, align 4
  %9 = load i32, ptr %6, align 4
  call void @_ZN2cv3MatC2Eiii(ptr noundef nonnull align 8 dereferenceable(96) %7, i32 noundef %8, i32 noundef %9, i32 noundef 5)
  ret void
}

; Function Attrs: mustprogress uwtable
define internal void @_ZN2cv5kinfuL16pyrDownBilateralENS_4Mat_IfEEf(ptr dead_on_unwind noalias writable sret(%"class.cv::Mat_") align 8 %0, ptr noundef %1, float noundef %2) #4 personality ptr @__gxx_personality_v0 {
  %4 = alloca ptr, align 8
  %5 = alloca ptr, align 8
  %6 = alloca float, align 4
  %7 = alloca %"class.cv::utils::trace::details::Region", align 8
  %8 = alloca i1, align 1
  %9 = alloca ptr, align 8
  %10 = alloca i32, align 4
  %11 = alloca %"struct.cv::kinfu::PyrDownBilateralInvoker", align 8
  %12 = alloca %"class.cv::Range", align 4
  %13 = alloca i32, align 4
  store ptr %0, ptr %4, align 8
  store ptr %1, ptr %5, align 8
  store float %2, ptr %6, align 4
  call void @_ZN2cv5utils5trace7details6RegionC1ERKNS3_21LocationStaticStorageE(ptr noundef nonnull align 8 dereferenceable(12) %7, ptr noundef nonnull align 8 dereferenceable(32) @_ZZN2cv5kinfuL16pyrDownBilateralENS_4Mat_IfEEfE25__cv_trace_location_fn257)
  store i1 false, ptr %8, align 1
  %14 = getelementptr inbounds %"class.cv::Mat", ptr %1, i32 0, i32 2
  %15 = load i32, ptr %14, align 8
  %16 = sdiv i32 %15, 2
  %17 = getelementptr inbounds %"class.cv::Mat", ptr %1, i32 0, i32 3
  %18 = load i32, ptr %17, align 4
  %19 = sdiv i32 %18, 2
  invoke void @_ZN2cv4Mat_IfEC2Eii(ptr noundef nonnull align 8 dereferenceable(96) %0, i32 noundef %16, i32 noundef %19)
          to label %20 unwind label %28

20:                                               ; preds = %3
  %21 = load float, ptr %6, align 4
  invoke void @_ZN2cv5kinfu23PyrDownBilateralInvokerC2ERKNS_4Mat_IfEERS3_f(ptr noundef nonnull align 8 dereferenceable(28) %11, ptr noundef nonnull align 8 dereferenceable(96) %1, ptr noundef nonnull align 8 dereferenceable(96) %0, float noundef %21)
          to label %22 unwind label %32

22:                                               ; preds = %20
  %23 = getelementptr inbounds %"class.cv::Mat", ptr %0, i32 0, i32 2
  %24 = load i32, ptr %23, align 8
  invoke void @_ZN2cv5RangeC2Eii(ptr noundef nonnull align 4 dereferenceable(8) %12, i32 noundef 0, i32 noundef %24)
          to label %25 unwind label %36

25:                                               ; preds = %22
  store i32 -1, ptr %13, align 4
  invoke void @_ZN2cv13parallel_for_ERKNS_5RangeERKNS_16ParallelLoopBodyEd(ptr noundef nonnull align 4 dereferenceable(8) %12, ptr noundef nonnull align 8 dereferenceable(8) %11, double noundef -1.000000e+00)
          to label %26 unwind label %36

26:                                               ; preds = %25
  store i1 true, ptr %8, align 1
  call void @_ZN2cv5kinfu23PyrDownBilateralInvokerD2Ev(ptr noundef nonnull align 8 dereferenceable(28) %11) #3
  %27 = load i1, ptr %8, align 1
  br i1 %27, label %41, label %40

28:                                               ; preds = %3
  %29 = landingpad { ptr, i32 }
          cleanup
  %30 = extractvalue { ptr, i32 } %29, 0
  store ptr %30, ptr %9, align 8
  %31 = extractvalue { ptr, i32 } %29, 1
  store i32 %31, ptr %10, align 4
  br label %43

32:                                               ; preds = %20
  %33 = landingpad { ptr, i32 }
          cleanup
  %34 = extractvalue { ptr, i32 } %33, 0
  store ptr %34, ptr %9, align 8
  %35 = extractvalue { ptr, i32 } %33, 1
  store i32 %35, ptr %10, align 4
  br label %42

36:                                               ; preds = %25, %22
  %37 = landingpad { ptr, i32 }
          cleanup
  %38 = extractvalue { ptr, i32 } %37, 0
  store ptr %38, ptr %9, align 8
  %39 = extractvalue { ptr, i32 } %37, 1
  store i32 %39, ptr %10, align 4
  call void @_ZN2cv5kinfu23PyrDownBilateralInvokerD2Ev(ptr noundef nonnull align 8 dereferenceable(28) %11) #3
  br label %42

40:                                               ; preds = %26
  call void @_ZN2cv4Mat_IfED2Ev(ptr noundef nonnull align 8 dereferenceable(96) %0) #3
  br label %41

41:                                               ; preds = %40, %26
  call void @_ZN2cv5utils5trace7details6RegionD2Ev(ptr noundef nonnull align 8 dereferenceable(12) %7) #3
  ret void

42:                                               ; preds = %36, %32
  call void @_ZN2cv4Mat_IfED2Ev(ptr noundef nonnull align 8 dereferenceable(96) %0) #3
  br label %43

43:                                               ; preds = %42, %28
  call void @_ZN2cv5utils5trace7details6RegionD2Ev(ptr noundef nonnull align 8 dereferenceable(12) %7) #3
  br label %44

44:                                               ; preds = %43
  %45 = load ptr, ptr %9, align 8
  %46 = load i32, ptr %10, align 4
  %47 = insertvalue { ptr, i32 } poison, ptr %45, 0
  %48 = insertvalue { ptr, i32 } %47, i32 %46, 1
  resume { ptr, i32 } %48
}