; Function Attrs: mustprogress uwtable
define internal fastcc void @_ZN2cv5kinfuL16pyrDownBilateralENS_4Mat_IfEEf(ptr dead_on_unwind noalias writable align 8 %0, ptr noundef %1, float noundef %2) unnamed_addr #6 personality ptr @__gxx_personality_v0 {
  %4 = alloca %"class.cv::utils::trace::details::Region", align 8
  %5 = alloca %"struct.cv::kinfu::PyrDownBilateralInvoker", align 8
  %6 = alloca %"class.cv::Range", align 4
  call void @_ZN2cv5utils5trace7details6RegionC1ERKNS3_21LocationStaticStorageE(ptr noundef nonnull align 8 dereferenceable(12) %4, ptr noundef nonnull align 8 dereferenceable(32) @_ZZN2cv5kinfuL16pyrDownBilateralENS_4Mat_IfEEfE25__cv_trace_location_fn257)
  %7 = getelementptr inbounds i8, ptr %1, i64 8
  %8 = load i32, ptr %7, align 8
  %9 = sdiv i32 %8, 2
  %10 = getelementptr inbounds i8, ptr %1, i64 12
  %11 = load i32, ptr %10, align 4
  %12 = sdiv i32 %11, 2
  invoke void @_ZN2cv3MatC2Eiii(ptr noundef nonnull align 8 dereferenceable(96) %0, i32 noundef %9, i32 noundef %12, i32 noundef 5)
          to label %_ZN2cv4Mat_IfEC2Eii.exit unwind label %26

_ZN2cv4Mat_IfEC2Eii.exit:                         ; preds = %3
  store ptr getelementptr inbounds inrange(-16, 24) (i8, ptr @_ZTVN2cv5kinfu23PyrDownBilateralInvokerE, i64 16), ptr %5, align 8
  %13 = getelementptr inbounds i8, ptr %5, i64 8
  store ptr %1, ptr %13, align 8
  %14 = getelementptr inbounds i8, ptr %5, i64 16
  store ptr %0, ptr %14, align 8
  %15 = getelementptr inbounds i8, ptr %5, i64 24
  store float %2, ptr %15, align 8
  %16 = getelementptr inbounds i8, ptr %0, i64 8
  %17 = load i32, ptr %16, align 8
  store i32 0, ptr %6, align 4
  %18 = getelementptr inbounds i8, ptr %6, i64 4
  store i32 %17, ptr %18, align 4
  invoke void @_ZN2cv13parallel_for_ERKNS_5RangeERKNS_16ParallelLoopBodyEd(ptr noundef nonnull align 4 dereferenceable(8) %6, ptr noundef nonnull align 8 dereferenceable(8) %5, double noundef -1.000000e+00)
          to label %19 unwind label %28

19:                                               ; preds = %_ZN2cv4Mat_IfEC2Eii.exit
  call void @_ZN2cv16ParallelLoopBodyD2Ev(ptr noundef nonnull align 8 dereferenceable(8) %5) #17
  %20 = getelementptr inbounds i8, ptr %4, i64 8
  %21 = load i32, ptr %20, align 8
  %.not.i = icmp eq i32 %21, 0
  br i1 %.not.i, label %_ZN2cv5utils5trace7details6RegionD2Ev.exit, label %22

22:                                               ; preds = %19
  invoke void @_ZN2cv5utils5trace7details6Region7destroyEv(ptr noundef nonnull align 8 dereferenceable(12) %4)
          to label %_ZN2cv5utils5trace7details6RegionD2Ev.exit unwind label %23

23:                                               ; preds = %22
  %24 = landingpad { ptr, i32 }
          catch ptr null
  %25 = extractvalue { ptr, i32 } %24, 0
  call void @__clang_call_terminate(ptr %25) #19
  unreachable

_ZN2cv5utils5trace7details6RegionD2Ev.exit:       ; preds = %19, %22
  ret void

26:                                               ; preds = %3
  %27 = landingpad { ptr, i32 }
          cleanup
  br label %30

28:                                               ; preds = %_ZN2cv4Mat_IfEC2Eii.exit
  %29 = landingpad { ptr, i32 }
          cleanup
  call void @_ZN2cv16ParallelLoopBodyD2Ev(ptr noundef nonnull align 8 dereferenceable(8) %5) #17
  call void @_ZN2cv3MatD2Ev(ptr noundef nonnull align 8 dereferenceable(96) %0) #17
  br label %30

30:                                               ; preds = %28, %26
  %.pn = phi { ptr, i32 } [ %29, %28 ], [ %27, %26 ]
  call void @_ZN2cv5utils5trace7details6RegionD2Ev(ptr noundef nonnull align 8 dereferenceable(12) %4) #17
  resume { ptr, i32 } %.pn
}